(dp0
S'zac'
p1
(lp2
S'13822223333'
p3
aS'chinasoft'
p4
aS'v-zagu@chinasoft.com'
p5
asS'stan'
p6
(lp7
S'13600001111'
p8
aS'microsoft'
p9
aS'v-sqian@microsoft.com'
p10
asS'walden'
p11
(lp12
S'13811112222'
p13
aS'tencent'
p14
aS'walden@qq.com'
p15
asS'jack'
p16
(lp17
S'13776069486'
p18
aS'emc'
p19
aS'jackxu@emc.com'
p20
asS'stephen'
p21
(lp22
S'13776069486'
p23
aS'chinasoft'
p24
aS'v-stzhou@chinasoft.com'
p25
asS'cuan'
p26
(lp27
S'13944445555'
p28
aS'emc'
p29
aS'v-cuqu@emc.com'
p30
as.