(dp0
S'ivan'
p1
(lp2
S'13616163636'
p3
aS'ebay'
p4
aS'ivangu@ebay.com'
p5
asS'zac'
p6
(lp7
S'13812341234'
p8
aS'chinasoft'
p9
aS'v-zagu@chinasoft.com'
p10
asS'stan'
p11
(lp12
S'13600001111'
p13
aS'microsoft'
p14
aS'v-sqian@microsoft.com'
p15
asS'walden'
p16
(lp17
S'13811112222'
p18
aS'tencent'
p19
aS'walden@qq.com'
p20
asS'jack'
p21
(lp22
S'13776069486'
p23
aS'emc'
p24
aS'jackxu@emc.com'
p25
asS'stephen'
p26
(lp27
S'18001950747'
p28
aS'chinasoft'
p29
aS'v-stzhou@microsoft.com'
p30
asS'cuan'
p31
(lp32
S'13944445555'
p33
aS'emc'
p34
aS'v-cuqu@emc.com'
p35
as.